Certificate:
    Data:
        Version: 3 (0x2)
        Serial Number: 3 (0x3)
    Signature Algorithm: sha256WithRSAEncryption
        Issuer: C=ES, ST=Murcia, O=UMU, OU=nombreorganizacion6535, CN=nombreorganizacion6535.org
        Validity
            Not Before: Apr 19 10:39:04 2026 GMT
            Not After : May 24 10:39:04 2027 GMT
        Subject: C=ES, ST=Murcia, O=UMU, OU=nombreorganizacion6535, CN=edu6535.org/emailAddress=edu@gmail.com
        Subject Public Key Info:
            Public Key Algorithm: rsaEncryption
                Public-Key: (2048 bit)
                Modulus:
                    00:c5:b1:34:d5:f6:be:5e:59:a9:84:e2:95:f1:41:
                    a1:d8:ab:28:01:d4:9f:61:77:ac:2b:20:c3:9e:a7:
                    6c:4b:3a:85:43:10:d3:da:65:6b:be:65:c4:94:8a:
                    14:f6:53:ac:29:e0:85:ca:99:ca:fd:79:85:12:ce:
                    51:e6:d5:f7:dd:1a:e0:ff:2b:2a:28:85:b1:2d:e5:
                    92:92:96:76:5f:45:6b:37:bc:ca:7c:fd:b1:0e:a8:
                    78:72:76:3b:c0:dd:41:b9:15:18:29:c5:98:01:69:
                    57:40:fe:55:ac:d6:ba:a4:1e:e4:07:50:98:da:4c:
                    0a:81:ac:aa:7b:03:16:b8:f8:af:d5:36:a1:40:50:
                    bc:89:7a:2f:2a:af:67:cd:25:23:80:be:42:31:f2:
                    c0:e4:c5:85:50:55:d2:ee:cb:ce:7f:6d:08:7c:6d:
                    f7:55:08:a5:69:c5:a3:11:e9:57:96:01:df:6f:cf:
                    b6:cf:bd:3d:38:0b:cc:56:ff:93:60:e8:80:ac:78:
                    97:c7:dc:65:a4:12:4b:4c:cf:55:67:70:b7:93:af:
                    82:29:8a:45:d4:5b:b5:88:c3:c8:17:31:e0:93:89:
                    db:63:fa:96:c6:4b:63:98:37:b5:ae:05:a9:c4:23:
                    1c:2c:04:a2:6e:45:3d:bb:53:47:f1:57:e4:ee:24:
                    98:c9
                Exponent: 65537 (0x10001)
        X509v3 extensions:
            X509v3 Basic Constraints: 
                CA:FALSE
            Netscape Comment: 
                OpenSSL Generated Certificate
            X509v3 Subject Key Identifier: 
                B6:43:19:F1:80:95:86:5F:18:76:92:82:CB:C6:79:7A:27:38:C3:FE
            X509v3 Authority Key Identifier: 
                keyid:77:D2:C9:8B:03:15:97:C8:C7:E5:94:DF:DD:7A:6E:56:11:45:30:4C

    Signature Algorithm: sha256WithRSAEncryption
         32:8d:1d:c8:f7:0c:63:83:79:82:18:4b:ab:5e:a4:b2:18:c3:
         57:42:e5:ee:0c:17:0d:ec:87:21:d3:10:c7:b1:cc:ed:7b:0d:
         4e:4b:13:32:a3:8d:1c:98:60:7e:2c:24:6d:29:02:b9:65:e2:
         fd:43:db:d9:05:66:61:5a:dd:a2:9a:21:71:fd:f3:f3:eb:70:
         3b:51:6b:55:ea:f4:b2:5f:a4:64:02:7b:eb:00:94:1f:6b:69:
         c3:8d:ed:25:75:e5:ee:36:ab:0c:f9:d3:a5:ae:a1:2a:e3:70:
         ea:04:42:f5:21:de:34:cc:42:03:6d:ec:cb:67:9e:50:d1:dd:
         df:49:86:be:f9:9d:d2:c5:b2:be:95:17:a8:4f:58:3c:79:70:
         89:a4:f6:ec:83:76:56:ba:cb:df:5e:43:f2:6d:2b:38:4d:0a:
         57:ab:93:4c:06:4a:d3:cc:b6:85:be:c7:e2:24:15:32:fb:0e:
         77:30:46:b7:ac:d8:f0:ed:9e:d7:aa:f5:27:86:7b:cc:5a:cd:
         95:fa:a6:ce:f1:68:49:9a:be:bc:a4:78:f6:d9:14:89:3c:3f:
         b7:2d:ce:d8:41:aa:01:04:6a:2b:d3:a1:42:a7:75:cd:9e:0c:
         20:55:e7:ec:3f:fe:df:ea:40:3c:2e:97:bd:c7:00:2e:f9:8a:
         cb:9a:3c:64
-----BEGIN CERTIFICATE-----
MIID6jCCAtKgAwIBAgIBAzANBgkqhkiG9w0BAQsFADByMQswCQYDVQQGEwJFUzEP
MA0GA1UECAwGTXVyY2lhMQwwCgYDVQQKDANVTVUxHzAdBgNVBAsMFm5vbWJyZW9y
Z2FuaXphY2lvbjY1MzUxIzAhBgNVBAMMGm5vbWJyZW9yZ2FuaXphY2lvbjY1MzUu
b3JnMB4XDTI2MDQxOTEwMzkwNFoXDTI3MDUyNDEwMzkwNFowgYExCzAJBgNVBAYT
AkVTMQ8wDQYDVQQIDAZNdXJjaWExDDAKBgNVBAoMA1VNVTEfMB0GA1UECwwWbm9t
YnJlb3JnYW5pemFjaW9uNjUzNTEUMBIGA1UEAwwLZWR1NjUzNS5vcmcxHDAaBgkq
hkiG9w0BCQEWDWVkdUBnbWFpbC5jb20wggEiMA0GCSqGSIb3DQEBAQUAA4IBDwAw
ggEKAoIBAQDFsTTV9r5eWamE4pXxQaHYqygB1J9hd6wrIMOep2xLOoVDENPaZWu+
ZcSUihT2U6wp4IXKmcr9eYUSzlHm1ffdGuD/KyoohbEt5ZKSlnZfRWs3vMp8/bEO
qHhydjvA3UG5FRgpxZgBaVdA/lWs1rqkHuQHUJjaTAqBrKp7Axa4+K/VNqFAULyJ
ei8qr2fNJSOAvkIx8sDkxYVQVdLuy85/bQh8bfdVCKVpxaMR6VeWAd9vz7bPvT04
C8xW/5Ng6ICseJfH3GWkEktMz1VncLeTr4IpikXUW7WIw8gXMeCTidtj+pbGS2OY
N7WuBanEIxwsBKJuRT27U0fxV+TuJJjJAgMBAAGjezB5MAkGA1UdEwQCMAAwLAYJ
YIZIAYb4QgENBB8WHU9wZW5TU0wgR2VuZXJhdGVkIENlcnRpZmljYXRlMB0GA1Ud
DgQWBBS2QxnxgJWGXxh2koLLxnl6JzjD/jAfBgNVHSMEGDAWgBR30smLAxWXyMfl
lN/dem5WEUUwTDANBgkqhkiG9w0BAQsFAAOCAQEAMo0dyPcMY4N5ghhLq16kshjD
V0Ll7gwXDeyHIdMQx7HM7XsNTksTMqONHJhgfiwkbSkCuWXi/UPb2QVmYVrdopoh
cf3z8+twO1FrVer0sl+kZAJ76wCUH2tpw43tJXXl7jarDPnTpa6hKuNw6gRC9SHe
NMxCA23sy2eeUNHd30mGvvmd0sWyvpUXqE9YPHlwiaT27IN2VrrL315D8m0rOE0K
V6uTTAZK08y2hb7H4iQVMvsOdzBGt6zY8O2e16r1J4Z7zFrNlfqmzvFoSZq+vKR4
9tkUiTw/ty3O2EGqAQRqK9OhQqd1zZ4MIFXn7D/+3+pAPC6XvccALvmKy5o8ZA==
-----END CERTIFICATE-----
