Certificate:
    Data:
        Version: 3 (0x2)
        Serial Number: 2 (0x2)
    Signature Algorithm: sha256WithRSAEncryption
        Issuer: C=ES, ST=Murcia, O=UMU, OU=nombreorganizacion6535, CN=nombreorganizacion6535.org
        Validity
            Not Before: Apr 13 14:44:50 2026 GMT
            Not After : May 18 14:44:50 2027 GMT
        Subject: C=ES, ST=Murcia, O=UMU, OU=nombreorganizacion6535.org, CN=www.nombreorganizacion6535.org
        Subject Public Key Info:
            Public Key Algorithm: rsaEncryption
                Public-Key: (2048 bit)
                Modulus:
                    00:d7:9d:94:a0:cc:e4:9c:5a:4f:8a:1f:9e:a1:d3:
                    65:fa:73:8e:4e:99:7a:12:ab:d8:e0:6d:d6:11:28:
                    50:c4:3b:8d:47:28:85:10:3b:86:0b:24:92:42:63:
                    bf:aa:45:cb:98:6d:f8:e1:d5:cc:d9:3c:cb:49:b7:
                    ea:34:00:c5:96:b3:30:bb:09:78:c3:16:b2:60:19:
                    7a:53:e4:d5:4f:c5:7f:31:25:44:2a:0f:a7:0c:15:
                    75:bc:f4:10:4f:f9:77:3f:61:d6:87:a2:f8:47:c1:
                    83:29:21:c7:3f:7c:b8:bb:d4:ba:83:33:64:80:8c:
                    c5:35:39:6f:03:7f:dd:2b:da:fb:b1:52:78:79:b4:
                    4b:f7:3a:8e:f9:4d:90:83:4f:48:e3:62:30:da:03:
                    25:55:1d:35:59:4e:dc:78:4c:c0:68:61:7a:ae:9d:
                    69:73:26:13:bf:80:06:2a:c3:12:c4:bd:34:5f:26:
                    4b:b0:29:89:90:50:67:9e:0f:11:7d:be:15:d3:03:
                    b9:22:c5:01:f8:e0:a7:34:76:67:83:52:21:89:3d:
                    19:0c:29:b7:51:05:ef:b0:d5:8c:b2:0d:e7:aa:5d:
                    fc:59:7f:86:50:ab:51:7e:a0:14:a0:00:f4:02:9b:
                    79:c6:5a:93:7a:99:93:69:31:08:d6:06:1b:02:e5:
                    0c:e1
                Exponent: 65537 (0x10001)
        X509v3 extensions:
            X509v3 Subject Alternative Name: 
                DNS:www.nombreorganizacion6535.org, IP Address:192.168.56.102
    Signature Algorithm: sha256WithRSAEncryption
         91:ee:5f:52:00:3f:7b:f7:70:2f:c2:f3:18:51:51:c2:1b:3f:
         53:1e:c8:33:f4:27:5b:83:7b:3f:7d:ff:d6:13:82:a0:87:76:
         3a:f2:02:63:94:0f:2c:2f:bf:ec:68:dc:4f:bf:61:77:f3:9c:
         37:3c:7a:5e:1b:d5:48:9e:29:c9:a1:1a:99:64:ae:b7:80:5c:
         27:a7:94:dc:01:9b:bc:65:60:d7:a5:2a:37:6e:68:b1:8b:d9:
         90:6c:1e:a2:27:cf:a3:8b:53:92:c9:9e:cb:44:66:a1:77:e7:
         c7:51:b5:a9:67:d4:bc:48:98:1c:81:30:8e:7b:d4:3c:a1:1d:
         97:4e:5d:99:44:a8:79:43:14:f9:b4:e2:29:11:d2:f2:7e:67:
         13:2d:9c:1f:52:be:06:4d:90:3c:af:d9:89:ee:3a:83:cf:88:
         9e:08:23:2c:94:1f:2f:ec:47:01:39:a6:1b:78:15:bd:10:cf:
         85:4a:bd:00:46:6e:b6:7b:b9:62:44:ab:0f:d4:4b:f0:a1:0b:
         00:48:ab:52:cb:8d:fe:97:8e:af:e2:16:0c:f0:fe:66:c1:ad:
         4d:5d:4e:d1:5b:e0:7c:22:2a:a4:22:d6:44:16:2b:e8:48:d5:
         a8:ba:91:3e:9a:67:19:4c:2a:70:15:ce:7b:59:cb:a6:08:b7:
         5e:35:bf:16
-----BEGIN CERTIFICATE-----
MIIDmjCCAoKgAwIBAgIBAjANBgkqhkiG9w0BAQsFADByMQswCQYDVQQGEwJFUzEP
MA0GA1UECAwGTXVyY2lhMQwwCgYDVQQKDANVTVUxHzAdBgNVBAsMFm5vbWJyZW9y
Z2FuaXphY2lvbjY1MzUxIzAhBgNVBAMMGm5vbWJyZW9yZ2FuaXphY2lvbjY1MzUu
b3JnMB4XDTI2MDQxMzE0NDQ1MFoXDTI3MDUxODE0NDQ1MFowejELMAkGA1UEBhMC
RVMxDzANBgNVBAgMBk11cmNpYTEMMAoGA1UECgwDVU1VMSMwIQYDVQQLDBpub21i
cmVvcmdhbml6YWNpb242NTM1Lm9yZzEnMCUGA1UEAwwed3d3Lm5vbWJyZW9yZ2Fu
aXphY2lvbjY1MzUub3JnMIIBIjANBgkqhkiG9w0BAQEFAAOCAQ8AMIIBCgKCAQEA
152UoMzknFpPih+eodNl+nOOTpl6EqvY4G3WEShQxDuNRyiFEDuGCySSQmO/qkXL
mG344dXM2TzLSbfqNADFlrMwuwl4wxayYBl6U+TVT8V/MSVEKg+nDBV1vPQQT/l3
P2HWh6L4R8GDKSHHP3y4u9S6gzNkgIzFNTlvA3/dK9r7sVJ4ebRL9zqO+U2Qg09I
42Iw2gMlVR01WU7ceEzAaGF6rp1pcyYTv4AGKsMSxL00XyZLsCmJkFBnng8Rfb4V
0wO5IsUB+OCnNHZng1IhiT0ZDCm3UQXvsNWMsg3nql38WX+GUKtRfqAUoAD0Apt5
xlqTepmTaTEI1gYbAuUM4QIDAQABozMwMTAvBgNVHREEKDAmgh53d3cubm9tYnJl
b3JnYW5pemFjaW9uNjUzNS5vcmeHBMCoOGYwDQYJKoZIhvcNAQELBQADggEBAJHu
X1IAP3v3cC/C8xhRUcIbP1MeyDP0J1uDez99/9YTgqCHdjryAmOUDywvv+xo3E+/
YXfznDc8el4b1UieKcmhGplkrreAXCenlNwBm7xlYNelKjduaLGL2ZBsHqInz6OL
U5LJnstEZqF358dRtaln1LxImByBMI571DyhHZdOXZlEqHlDFPm04ikR0vJ+ZxMt
nB9SvgZNkDyv2YnuOoPPiJ4IIyyUHy/sRwE5pht4Fb0Qz4VKvQBGbrZ7uWJEqw/U
S/ChCwBIq1LLjf6Xjq/iFgzw/mbBrU1dTtFb4HwiKqQi1kQWK+hI1ai6kT6aZxlM
KnAVzntZy6YIt141vxY=
-----END CERTIFICATE-----
