Certificate:
    Data:
        Version: 3 (0x2)
        Serial Number: 1 (0x1)
    Signature Algorithm: sha256WithRSAEncryption
        Issuer: C=ES, ST=Murcia, O=UMU, OU=nombreorganizacion6535, CN=nombreorganizacion6535.org
        Validity
            Not Before: Mar 23 17:14:59 2026 GMT
            Not After : Apr 27 17:14:59 2027 GMT
        Subject: C=ES, ST=Murcia, O=UMU, OU=nombreorganizacion6535, CN=www.nombreorganizacion6535.org
        Subject Public Key Info:
            Public Key Algorithm: rsaEncryption
                Public-Key: (2048 bit)
                Modulus:
                    00:a5:84:a9:ee:ae:2c:28:00:56:6c:3d:5f:c6:74:
                    39:a2:16:b1:6c:42:5a:b3:68:a9:bb:6d:6d:76:79:
                    1d:99:04:41:c8:46:cc:be:3c:a8:eb:16:b7:c6:63:
                    2c:6f:81:62:4f:c2:56:2e:f7:a7:eb:ca:60:14:65:
                    4b:49:25:90:b4:b3:96:14:50:2e:2f:42:91:7a:8c:
                    21:81:dc:8a:c3:d8:2c:56:ce:ce:d1:8d:6c:9b:17:
                    4f:58:08:e4:6c:6a:3e:30:eb:66:90:8d:18:b8:63:
                    b6:7d:cc:53:eb:f3:63:ea:75:d5:fd:e6:6c:7a:4d:
                    85:1a:f8:84:94:4b:73:bb:42:89:75:98:1d:1a:c4:
                    cd:46:6e:ea:09:2c:1e:f3:c7:cf:8e:05:92:87:de:
                    df:38:a7:23:44:00:29:3f:0f:6f:c9:5e:09:9c:0b:
                    db:50:a5:b3:b5:0a:ef:05:75:02:fa:25:cd:ff:3b:
                    2b:7a:1c:40:59:b5:99:a2:10:94:80:0d:7d:12:5f:
                    13:86:03:32:f0:ab:a2:fc:22:a9:69:ce:65:7c:73:
                    d0:3e:c7:69:89:10:83:14:7c:a5:2c:2e:78:78:b1:
                    d9:4a:36:f7:13:52:72:4b:72:ef:54:54:3b:2e:4f:
                    9e:e4:96:bc:c3:71:f2:30:e7:5a:9e:c8:0c:23:2b:
                    20:5d
                Exponent: 65537 (0x10001)
        X509v3 extensions:
            X509v3 Basic Constraints: 
                CA:FALSE
            Netscape Comment: 
                OpenSSL Generated Certificate
            X509v3 Subject Key Identifier: 
                F9:4D:DA:D2:2A:07:DC:D5:B4:A4:EA:AC:CC:88:17:7C:9A:4C:61:57
            X509v3 Authority Key Identifier: 
                keyid:77:D2:C9:8B:03:15:97:C8:C7:E5:94:DF:DD:7A:6E:56:11:45:30:4C

    Signature Algorithm: sha256WithRSAEncryption
         92:e3:15:49:03:07:cb:6d:2f:43:dd:59:e8:ce:44:9d:a8:cb:
         f6:6f:60:3b:64:b7:62:e0:fe:ea:b3:2c:de:40:41:40:5d:3b:
         af:a0:ec:b6:51:59:a2:f2:d5:2b:82:a1:32:68:ca:00:ba:31:
         4d:4f:d0:40:3a:d2:b2:ac:ae:cc:9e:42:5e:52:c4:13:ff:12:
         f2:c2:a4:eb:73:ba:ba:05:eb:f9:7c:ea:d6:d6:4f:2a:6b:8e:
         0b:4b:1c:c0:da:53:5a:3a:cf:69:4e:0e:0d:fe:b7:b1:c2:90:
         aa:50:fa:f6:bd:a7:f5:80:3e:00:0b:21:7c:d8:16:d2:d6:d1:
         58:46:b1:d9:0e:0d:e6:8a:60:e4:6f:68:40:8b:ca:6b:8b:04:
         a0:f2:ca:22:ef:d4:d8:03:24:a9:2f:fb:58:d4:bb:5b:f2:3c:
         da:78:bc:45:9b:f5:a5:c6:7e:5f:99:c4:f3:f5:d9:1c:5e:15:
         90:c2:87:a4:ef:3f:3d:63:39:64:48:07:51:95:46:37:5c:79:
         61:7d:dc:da:63:71:4d:57:4d:71:01:07:d8:f5:91:90:ef:04:
         17:4e:87:6b:1f:35:5c:b1:9c:d2:b1:63:4e:9a:62:e8:c9:04:
         4a:a9:51:f0:00:ae:73:1b:6c:d3:dc:44:ed:c6:ce:9a:32:3b:
         99:e9:5f:e3
-----BEGIN CERTIFICATE-----
MIID3jCCAsagAwIBAgIBATANBgkqhkiG9w0BAQsFADByMQswCQYDVQQGEwJFUzEP
MA0GA1UECAwGTXVyY2lhMQwwCgYDVQQKDANVTVUxHzAdBgNVBAsMFm5vbWJyZW9y
Z2FuaXphY2lvbjY1MzUxIzAhBgNVBAMMGm5vbWJyZW9yZ2FuaXphY2lvbjY1MzUu
b3JnMB4XDTI2MDMyMzE3MTQ1OVoXDTI3MDQyNzE3MTQ1OVowdjELMAkGA1UEBhMC
RVMxDzANBgNVBAgMBk11cmNpYTEMMAoGA1UECgwDVU1VMR8wHQYDVQQLDBZub21i
cmVvcmdhbml6YWNpb242NTM1MScwJQYDVQQDDB53d3cubm9tYnJlb3JnYW5pemFj
aW9uNjUzNS5vcmcwggEiMA0GCSqGSIb3DQEBAQUAA4IBDwAwggEKAoIBAQClhKnu
riwoAFZsPV/GdDmiFrFsQlqzaKm7bW12eR2ZBEHIRsy+PKjrFrfGYyxvgWJPwlYu
96frymAUZUtJJZC0s5YUUC4vQpF6jCGB3IrD2CxWzs7RjWybF09YCORsaj4w62aQ
jRi4Y7Z9zFPr82PqddX95mx6TYUa+ISUS3O7Qol1mB0axM1GbuoJLB7zx8+OBZKH
3t84pyNEACk/D2/JXgmcC9tQpbO1Cu8FdQL6Jc3/Oyt6HEBZtZmiEJSADX0SXxOG
AzLwq6L8IqlpzmV8c9A+x2mJEIMUfKUsLnh4sdlKNvcTUnJLcu9UVDsuT57klrzD
cfIw51qeyAwjKyBdAgMBAAGjezB5MAkGA1UdEwQCMAAwLAYJYIZIAYb4QgENBB8W
HU9wZW5TU0wgR2VuZXJhdGVkIENlcnRpZmljYXRlMB0GA1UdDgQWBBT5TdrSKgfc
1bSk6qzMiBd8mkxhVzAfBgNVHSMEGDAWgBR30smLAxWXyMfllN/dem5WEUUwTDAN
BgkqhkiG9w0BAQsFAAOCAQEAkuMVSQMHy20vQ91Z6M5EnajL9m9gO2S3YuD+6rMs
3kBBQF07r6DstlFZovLVK4KhMmjKALoxTU/QQDrSsqyuzJ5CXlLEE/8S8sKk63O6
ugXr+Xzq1tZPKmuOC0scwNpTWjrPaU4ODf63scKQqlD69r2n9YA+AAshfNgW0tbR
WEax2Q4N5opg5G9oQIvKa4sEoPLKIu/U2AMkqS/7WNS7W/I82ni8RZv1pcZ+X5nE
8/XZHF4VkMKHpO8/PWM5ZEgHUZVGN1x5YX3c2mNxTVdNcQEH2PWRkO8EF06Hax81
XLGc0rFjTppi6MkESqlR8ACucxts09xE7cbOmjI7melf4w==
-----END CERTIFICATE-----
